; Function Attrs: mustprogress nofree norecurse nosync nounwind willreturn memory(argmem: read) uwtable
define internal nonnull ptr @typevartuple_has_default(ptr noundef readonly captures(none) %0, ptr readnone captures(none) %1) #4 {
  %3 = getelementptr inbounds nuw i8, ptr %0, i64 32
  %4 = load ptr, ptr %3, align 8, !tbaa !112
  %.not.i = icmp eq ptr %4, null
  br i1 %.not.i, label %5, label %typevartuple_has_default_impl.exit

5:                                                ; preds = %2
  %6 = getelementptr inbounds nuw i8, ptr %0, i64 24
  %7 = load ptr, ptr %6, align 8, !tbaa !111
  %.not5.i = icmp eq ptr %7, @_Py_NoDefaultStruct
  %.not6.i = icmp eq ptr %7, null
  %or.cond.i = or i1 %.not5.i, %.not6.i
  %spec.select.i = select i1 %or.cond.i, ptr @_Py_FalseStruct, ptr @_Py_TrueStruct
  br label %typevartuple_has_default_impl.exit

typevartuple_has_default_impl.exit:               ; preds = %2, %5
  %.0.i = phi ptr [ @_Py_TrueStruct, %2 ], [ %spec.select.i, %5 ]
  ret ptr %.0.i
}